target datalayout = "e-m:e-p270:32:32-p271:32:32-p272:64:64-i64:64-i128:128-f80:128-n8:16:32:64-S128"
target triple = "x86_64-pc-linux-gnu"

%struct.Aig_Obj_t_ = type { %union.anon, ptr, ptr, i64, i32, i32, %union.anon.0 }
%union.anon = type { ptr }
%union.anon.0 = type { ptr }
%struct.Aig_Man_t_ = type { ptr, ptr, ptr, ptr, ptr, ptr, ptr, %struct.Aig_Obj_t_, i32, i32, i32, i32, i32, i32, [7 x i32], i32, ptr, i32, ptr, i32, ptr, i32, i32, i32, ptr, i32, i32, i32, i32, i32, ptr, ptr, i32, ptr, ptr, i32, ptr, ptr, i32, i32, i32, ptr, ptr, ptr, ptr, ptr, ptr, ptr, ptr, ptr, ptr, ptr, ptr, ptr, ptr, i32, ptr, ptr, ptr, ptr, i32, i64, i64, i64, ptr, ptr }
%struct.Vec_Ptr_t_ = type { i32, i32, ptr }

; Function Attrs: inlinehint nounwind uwtable
define internal ptr @Aig_Regular(ptr noundef %0) #2 {
  %2 = alloca ptr, align 8
  store ptr %0, ptr %2, align 8, !tbaa !8
  %3 = load ptr, ptr %2, align 8, !tbaa !8
  %4 = ptrtoint ptr %3 to i64
  %5 = and i64 %4, -2
  %6 = inttoptr i64 %5 to ptr
  ret ptr %6
}

; Function Attrs: inlinehint nounwind uwtable
define internal void @Aig_ManRecycleMemory(ptr noundef %0, ptr noundef %1) #2 {
  %3 = alloca ptr, align 8
  %4 = alloca ptr, align 8
  store ptr %0, ptr %3, align 8, !tbaa !3
  store ptr %1, ptr %4, align 8, !tbaa !8
  %5 = load ptr, ptr %4, align 8, !tbaa !8
  %6 = getelementptr inbounds nuw %struct.Aig_Obj_t_, ptr %5, i32 0, i32 3
  %7 = load i64, ptr %6, align 8
  %8 = and i64 %7, -8
  %9 = or i64 %8, 0
  store i64 %9, ptr %6, align 8
  %10 = load ptr, ptr %3, align 8, !tbaa !3
  %11 = getelementptr inbounds nuw %struct.Aig_Man_t_, ptr %10, i32 0, i32 33
  %12 = load ptr, ptr %11, align 8, !tbaa !24
  %13 = load ptr, ptr %4, align 8, !tbaa !8
  call void @Aig_MmFixedEntryRecycle(ptr noundef %12, ptr noundef %13)
  %14 = load ptr, ptr %3, align 8, !tbaa !3
  %15 = getelementptr inbounds nuw %struct.Aig_Man_t_, ptr %14, i32 0, i32 15
  %16 = load i32, ptr %15, align 4, !tbaa !49
  %17 = add nsw i32 %16, 1
  store i32 %17, ptr %15, align 4, !tbaa !49
  ret void
}

; Function Attrs: inlinehint nounwind uwtable
define internal void @Vec_PtrWriteEntry(ptr noundef %0, i32 noundef %1, ptr noundef %2) #2 {
  %4 = alloca ptr, align 8
  %5 = alloca i32, align 4
  %6 = alloca ptr, align 8
  store ptr %0, ptr %4, align 8, !tbaa !27
  store i32 %1, ptr %5, align 4, !tbaa !23
  store ptr %2, ptr %6, align 8, !tbaa !28
  %7 = load ptr, ptr %6, align 8, !tbaa !28
  %8 = load ptr, ptr %4, align 8, !tbaa !27
  %9 = getelementptr inbounds nuw %struct.Vec_Ptr_t_, ptr %8, i32 0, i32 2
  %10 = load ptr, ptr %9, align 8, !tbaa !32
  %11 = load i32, ptr %5, align 4, !tbaa !23
  %12 = sext i32 %11 to i64
  %13 = getelementptr inbounds ptr, ptr %10, i64 %12
  store ptr %7, ptr %13, align 8, !tbaa !28
  ret void
}

; Function Attrs: inlinehint nounwind uwtable
define internal void @Aig_ObjDeref(ptr noundef %0) #2 {
  %2 = alloca ptr, align 8
  store ptr %0, ptr %2, align 8, !tbaa !8
  %3 = load ptr, ptr %2, align 8, !tbaa !8
  %4 = getelementptr inbounds nuw %struct.Aig_Obj_t_, ptr %3, i32 0, i32 3
  %5 = load i64, ptr %4, align 8
  %6 = lshr i64 %5, 6
  %7 = and i64 %6, 67108863
  %8 = trunc i64 %7 to i32
  %9 = add i32 %8, -1
  %10 = zext i32 %9 to i64
  %11 = load i64, ptr %4, align 8
  %12 = and i64 %10, 67108863
  %13 = shl i64 %12, 6
  %14 = and i64 %11, -4294967233
  %15 = or i64 %14, %13
  store i64 %15, ptr %4, align 8
  ret void
}

; Function Attrs: inlinehint nounwind uwtable
define internal ptr @Aig_ObjFanin0(ptr noundef %0) #2 {
  %2 = alloca ptr, align 8
  store ptr %0, ptr %2, align 8, !tbaa !8
  %3 = load ptr, ptr %2, align 8, !tbaa !8
  %4 = getelementptr inbounds nuw %struct.Aig_Obj_t_, ptr %3, i32 0, i32 1
  %5 = load ptr, ptr %4, align 8, !tbaa !34
  %6 = call ptr @Aig_Regular(ptr noundef %5)
  ret ptr %6
}

; Function Attrs: nounwind uwtable
define void @Aig_ObjDeletePo(ptr noundef %0, ptr noundef %1) #0 {
  %3 = alloca ptr, align 8
  %4 = alloca ptr, align 8
  store ptr %0, ptr %3, align 8, !tbaa !3
  store ptr %1, ptr %4, align 8, !tbaa !8
  %5 = load ptr, ptr %4, align 8, !tbaa !8
  %6 = call ptr @Aig_ObjFanin0(ptr noundef %5)
  call void @Aig_ObjDeref(ptr noundef %6)
  %7 = load ptr, ptr %4, align 8, !tbaa !8
  %8 = getelementptr inbounds nuw %struct.Aig_Obj_t_, ptr %7, i32 0, i32 1
  store ptr null, ptr %8, align 8, !tbaa !34
  %9 = load ptr, ptr %3, align 8, !tbaa !3
  %10 = getelementptr inbounds nuw %struct.Aig_Man_t_, ptr %9, i32 0, i32 14
  %11 = load ptr, ptr %4, align 8, !tbaa !8
  %12 = getelementptr inbounds nuw %struct.Aig_Obj_t_, ptr %11, i32 0, i32 3
  %13 = load i64, ptr %12, align 8
  %14 = and i64 %13, 7
  %15 = trunc i64 %14 to i32
  %16 = zext i32 %15 to i64
  %17 = getelementptr inbounds nuw [7 x i32], ptr %10, i64 0, i64 %16
  %18 = load i32, ptr %17, align 4, !tbaa !23
  %19 = add nsw i32 %18, -1
  store i32 %19, ptr %17, align 4, !tbaa !23
  %20 = load ptr, ptr %3, align 8, !tbaa !3
  %21 = getelementptr inbounds nuw %struct.Aig_Man_t_, ptr %20, i32 0, i32 4
  %22 = load ptr, ptr %21, align 8, !tbaa !25
  %23 = load ptr, ptr %4, align 8, !tbaa !8
  %24 = getelementptr inbounds nuw %struct.Aig_Obj_t_, ptr %23, i32 0, i32 5
  %25 = load i32, ptr %24, align 4, !tbaa !26
  call void @Vec_PtrWriteEntry(ptr noundef %22, i32 noundef %25, ptr noundef null)
  %26 = load ptr, ptr %3, align 8, !tbaa !3
  %27 = load ptr, ptr %4, align 8, !tbaa !8
  call void @Aig_ManRecycleMemory(ptr noundef %26, ptr noundef %27)
  ret void
}