; Function Attrs: nounwind uwtable
define void @Aig_ObjDeletePo(ptr noundef captures(none) %0, ptr noundef %1) local_unnamed_addr #0 {
  %3 = getelementptr i8, ptr %1, i64 8
  %.val = load ptr, ptr %3, align 8, !tbaa !31
  %4 = ptrtoint ptr %.val to i64
  %5 = and i64 %4, -2
  %6 = inttoptr i64 %5 to ptr
  %7 = getelementptr inbounds nuw i8, ptr %6, i64 24
  %8 = load i64, ptr %7, align 8
  %9 = add i64 %8, 4294967232
  %10 = and i64 %9, 4294967232
  %11 = and i64 %8, -4294967233
  %12 = or disjoint i64 %10, %11
  store i64 %12, ptr %7, align 8
  store ptr null, ptr %3, align 8, !tbaa !31
  %13 = getelementptr inbounds nuw i8, ptr %0, i64 128
  %14 = getelementptr inbounds nuw i8, ptr %1, i64 24
  %15 = load i64, ptr %14, align 8
  %16 = and i64 %15, 7
  %17 = getelementptr inbounds nuw [7 x i32], ptr %13, i64 0, i64 %16
  %18 = load i32, ptr %17, align 4, !tbaa !29
  %19 = add nsw i32 %18, -1
  store i32 %19, ptr %17, align 4, !tbaa !29
  %20 = getelementptr inbounds nuw i8, ptr %0, i64 32
  %21 = load ptr, ptr %20, align 8, !tbaa !21
  %22 = getelementptr inbounds nuw i8, ptr %1, i64 36
  %23 = load i32, ptr %22, align 4, !tbaa !24
  %24 = getelementptr i8, ptr %21, i64 8
  %.val8 = load ptr, ptr %24, align 8, !tbaa !26
  %25 = sext i32 %23 to i64
  %26 = getelementptr inbounds ptr, ptr %.val8, i64 %25
  store ptr null, ptr %26, align 8, !tbaa !27
  %27 = load i64, ptr %14, align 8
  %28 = and i64 %27, -8
  store i64 %28, ptr %14, align 8
  %29 = getelementptr inbounds nuw i8, ptr %0, i64 272
  %30 = load ptr, ptr %29, align 8, !tbaa !3
  tail call void @Aig_MmFixedEntryRecycle(ptr noundef %30, ptr noundef %1) #11
  %31 = getelementptr inbounds nuw i8, ptr %0, i64 156
  %32 = load i32, ptr %31, align 4, !tbaa !44
  %33 = add nsw i32 %32, 1
  store i32 %33, ptr %31, align 4, !tbaa !44
  ret void
}